target datalayout = "e-m:e-p270:32:32-p271:32:32-p272:64:64-i64:64-i128:128-f80:128-n8:16:32:64-S128"
target triple = "x86_64-pc-linux-gnu"

@.str.79 = private unnamed_addr constant [13 x i8] c"Wrong format\00", align 1
@.str.80 = private unnamed_addr constant [40 x i8] c"Unknown command or category name in ACL\00", align 1
@.str.81 = private unnamed_addr constant [13 x i8] c"Syntax error\00", align 1
@.str.82 = private unnamed_addr constant [160 x i8] c"Adding a pattern after the * pattern (or the 'allkeys' flag) is not valid and does not have any effect. Try 'resetkeys' to start with an empty list of patterns\00", align 1
@.str.83 = private unnamed_addr constant [168 x i8] c"Adding a pattern after the * pattern (or the 'allchannels' flag) is not valid and does not have any effect. Try 'resetchannels' to start with an empty list of channels\00", align 1
@.str.84 = private unnamed_addr constant [67 x i8] c"The password you are trying to remove from the user does not exist\00", align 1
@.str.85 = private unnamed_addr constant [98 x i8] c"The password hash must be exactly 64 characters and contain only lowercase hexadecimal characters\00", align 1
@.str.86 = private unnamed_addr constant [70 x i8] c"Duplicate user found. A user can only be defined once in config files\00", align 1
@.str.87 = private unnamed_addr constant [52 x i8] c"Allowing first-arg of a subcommand is not supported\00", align 1

; Function Attrs: nounwind uwtable
define dso_local ptr @ACLSetUserStringError() #0 {
  %1 = alloca ptr, align 8
  call void @llvm.lifetime.start.p0(i64 8, ptr %1) #14
  store ptr @.str.79, ptr %1, align 8, !tbaa !5
  %2 = call ptr @__errno_location() #16
  %3 = load i32, ptr %2, align 4, !tbaa !17
  %4 = icmp eq i32 %3, 2
  br i1 %4, label %5, label %6

5:                                                ; preds = %0
  store ptr @.str.80, ptr %1, align 8, !tbaa !5
  br label %48

6:                                                ; preds = %0
  %7 = call ptr @__errno_location() #16
  %8 = load i32, ptr %7, align 4, !tbaa !17
  %9 = icmp eq i32 %8, 22
  br i1 %9, label %10, label %11

10:                                               ; preds = %6
  store ptr @.str.81, ptr %1, align 8, !tbaa !5
  br label %47

11:                                               ; preds = %6
  %12 = call ptr @__errno_location() #16
  %13 = load i32, ptr %12, align 4, !tbaa !17
  %14 = icmp eq i32 %13, 17
  br i1 %14, label %15, label %16

15:                                               ; preds = %11
  store ptr @.str.82, ptr %1, align 8, !tbaa !5
  br label %46

16:                                               ; preds = %11
  %17 = call ptr @__errno_location() #16
  %18 = load i32, ptr %17, align 4, !tbaa !17
  %19 = icmp eq i32 %18, 21
  br i1 %19, label %20, label %21

20:                                               ; preds = %16
  store ptr @.str.83, ptr %1, align 8, !tbaa !5
  br label %45

21:                                               ; preds = %16
  %22 = call ptr @__errno_location() #16
  %23 = load i32, ptr %22, align 4, !tbaa !17
  %24 = icmp eq i32 %23, 19
  br i1 %24, label %25, label %26

25:                                               ; preds = %21
  store ptr @.str.84, ptr %1, align 8, !tbaa !5
  br label %44

26:                                               ; preds = %21
  %27 = call ptr @__errno_location() #16
  %28 = load i32, ptr %27, align 4, !tbaa !17
  %29 = icmp eq i32 %28, 74
  br i1 %29, label %30, label %31

30:                                               ; preds = %26
  store ptr @.str.85, ptr %1, align 8, !tbaa !5
  br label %43

31:                                               ; preds = %26
  %32 = call ptr @__errno_location() #16
  %33 = load i32, ptr %32, align 4, !tbaa !17
  %34 = icmp eq i32 %33, 114
  br i1 %34, label %35, label %36

35:                                               ; preds = %31
  store ptr @.str.86, ptr %1, align 8, !tbaa !5
  br label %42

36:                                               ; preds = %31
  %37 = call ptr @__errno_location() #16
  %38 = load i32, ptr %37, align 4, !tbaa !17
  %39 = icmp eq i32 %38, 10
  br i1 %39, label %40, label %41

40:                                               ; preds = %36
  store ptr @.str.87, ptr %1, align 8, !tbaa !5
  br label %41

41:                                               ; preds = %40, %36
  br label %42

42:                                               ; preds = %41, %35
  br label %43

43:                                               ; preds = %42, %30
  br label %44

44:                                               ; preds = %43, %25
  br label %45

45:                                               ; preds = %44, %20
  br label %46

46:                                               ; preds = %45, %15
  br label %47

47:                                               ; preds = %46, %10
  br label %48

48:                                               ; preds = %47, %5
  %49 = load ptr, ptr %1, align 8, !tbaa !5
  call void @llvm.lifetime.end.p0(i64 8, ptr %1) #14
  ret ptr %49
}