; Function Attrs: mustprogress nofree nosync nounwind willreturn memory(read, inaccessiblemem: none) uwtable
define dso_local noundef nonnull ptr @ACLSetUserStringError() local_unnamed_addr #19 {
  %1 = tail call ptr @__errno_location() #28
  %2 = load i32, ptr %1, align 4, !tbaa !102
  switch i32 %2, label %.fold.split [
    i32 2, label %10
    i32 22, label %3
    i32 17, label %4
    i32 21, label %5
    i32 19, label %6
    i32 74, label %7
    i32 114, label %8
    i32 10, label %9
  ]

3:                                                ; preds = %0
  br label %10

4:                                                ; preds = %0
  br label %10

5:                                                ; preds = %0
  br label %10

6:                                                ; preds = %0
  br label %10

7:                                                ; preds = %0
  br label %10

8:                                                ; preds = %0
  br label %10

9:                                                ; preds = %0
  br label %10

.fold.split:                                      ; preds = %0
  br label %10

10:                                               ; preds = %0, %.fold.split, %3, %5, %7, %9, %8, %6, %4
  %.0 = phi ptr [ @.str.81, %3 ], [ @.str.82, %4 ], [ @.str.83, %5 ], [ @.str.84, %6 ], [ @.str.85, %7 ], [ @.str.86, %8 ], [ @.str.87, %9 ], [ @.str.80, %0 ], [ @.str.79, %.fold.split ]
  ret ptr %.0
}